; Function Attrs: nounwind sspstrong uwtable
define internal fastcc void @check_limit(i64 noundef %0, i64 noundef %1) unnamed_addr #0 {
  %3 = alloca i64, align 8
  store i64 %0, ptr %3, align 8, !tbaa !6
  %4 = icmp eq i64 %0, 4
  br i1 %4, label %get_limit.exit.thread, label %5

5:                                                ; preds = %2
  %6 = call i64 @rb_string_value(ptr noundef nonnull %3) #21
  %7 = load i64, ptr %3, align 8, !tbaa !6
  %8 = inttoptr i64 %7 to ptr
  %9 = getelementptr inbounds nuw i8, ptr %8, i64 16
  %10 = load i64, ptr %9, align 8, !tbaa !42
  %11 = icmp eq i64 %1, 4
  br i1 %11, label %get_limit.exit, label %12

12:                                               ; preds = %5
  %.pr.i.i = load i64, ptr @get_limit.rbimpl_id, align 8, !tbaa !6
  %.not4.i.i = icmp eq i64 %.pr.i.i, 0
  br i1 %.not4.i.i, label %.lr.ph.i.i, label %rbimpl_intern_const.exit.i

.lr.ph.i.i:                                       ; preds = %12, %.lr.ph.i.i
  %13 = call i64 @rb_intern2(ptr noundef nonnull @.str.320, i64 noundef 5) #21
  store i64 %13, ptr @get_limit.rbimpl_id, align 8, !tbaa !6
  %.not.i.i = icmp eq i64 %13, 0
  br i1 %.not.i.i, label %.lr.ph.i.i, label %rbimpl_intern_const.exit.i, !llvm.loop !51

rbimpl_intern_const.exit.i:                       ; preds = %.lr.ph.i.i, %12
  %.lcssa.i.i = phi i64 [ %.pr.i.i, %12 ], [ %13, %.lr.ph.i.i ]
  %14 = call i64 @rb_id2sym(i64 noundef %.lcssa.i.i) #21
  %15 = call i64 @rb_hash_aref(i64 noundef %1, i64 noundef %14) #21
  %16 = icmp eq i64 %15, 4
  br i1 %16, label %get_limit.exit.thread, label %17

17:                                               ; preds = %rbimpl_intern_const.exit.i
  %18 = and i64 %15, 1
  %.not.i6.i = icmp eq i64 %18, 0
  br i1 %.not.i6.i, label %21, label %19

19:                                               ; preds = %17
  %20 = ashr i64 %15, 1
  br label %get_limit.exit

21:                                               ; preds = %17
  %22 = call i64 @rb_num2ull(i64 noundef %15) #21
  br label %get_limit.exit

get_limit.exit:                                   ; preds = %5, %19, %21
  %.1.i = phi i64 [ 128, %5 ], [ %20, %19 ], [ %22, %21 ]
  %23 = icmp ugt i64 %10, %.1.i
  br i1 %23, label %24, label %get_limit.exit.thread

24:                                               ; preds = %get_limit.exit
  %25 = load i64, ptr @rb_eArgError, align 8, !tbaa !6
  call void (i64, ptr, ...) @rb_raise(i64 noundef %25, ptr noundef nonnull @.str.319, i64 noundef %10, i64 noundef %.1.i) #22
  unreachable

get_limit.exit.thread:                            ; preds = %rbimpl_intern_const.exit.i, %get_limit.exit, %2
  ret void
}